target datalayout = "e-m:e-p270:32:32-p271:32:32-p272:64:64-i64:64-i128:128-f80:128-n8:16:32:64-S128"
target triple = "x86_64-pc-linux-gnu"

%struct.expert_field = type { i32, i32 }
%struct.crumb_spec_t = type { i32, i8 }

@hf_ansi_637_reserved_bits_8_generic = internal global i32 0, align 4
@hf_ansi_637_reserved_bits_16_generic = internal global i32 0, align 4
@hf_ansi_637_tele_mult_enc_user_data_encoding = internal global i32 0, align 4
@hf_ansi_637_tele_mult_enc_user_data_num_fields = internal global i32 0, align 4
@hf_ansi_637_tele_mult_enc_user_data_text = internal global i32 0, align 4
@ei_ansi_637_short_data = internal global %struct.expert_field zeroinitializer, align 4

; Function Attrs: null_pointer_is_valid sspstrong uwtable
define internal void @tele_param_mult_enc_user_data(ptr noundef %0, ptr noundef %1, ptr noundef %2, i32 noundef %3, i32 noundef %4, ptr noundef %5) #0 {
  %7 = alloca ptr, align 8
  %8 = alloca ptr, align 8
  %9 = alloca ptr, align 8
  %10 = alloca i32, align 4
  %11 = alloca i32, align 4
  %12 = alloca ptr, align 8
  %13 = alloca i64, align 8
  %14 = alloca i8, align 1
  %15 = alloca i64, align 8
  %16 = alloca i8, align 1
  %17 = alloca i8, align 1
  %18 = alloca i16, align 2
  %19 = alloca i32, align 4
  %20 = alloca i32, align 4
  %21 = alloca i32, align 4
  %22 = alloca [3 x %struct.crumb_spec_t], align 16
  %23 = alloca i8, align 1
  %24 = alloca i32, align 4
  store ptr %0, ptr %7, align 8
  store ptr %1, ptr %8, align 8
  store ptr %2, ptr %9, align 8
  store i32 %3, ptr %10, align 4
  store i32 %4, ptr %11, align 4
  store ptr %5, ptr %12, align 8
  call void @llvm.lifetime.start.p0(i64 8, ptr %13) #7
  call void @llvm.lifetime.start.p0(i64 1, ptr %14) #7
  call void @llvm.lifetime.start.p0(i64 8, ptr %15) #7
  call void @llvm.lifetime.start.p0(i64 1, ptr %16) #7
  call void @llvm.lifetime.start.p0(i64 1, ptr %17) #7
  call void @llvm.lifetime.start.p0(i64 2, ptr %18) #7
  call void @llvm.lifetime.start.p0(i64 4, ptr %19) #7
  call void @llvm.lifetime.start.p0(i64 4, ptr %20) #7
  store i32 0, ptr %20, align 4
  %25 = load i32, ptr %10, align 4
  %26 = icmp ult i32 %25, 2
  br i1 %26, label %27, label %34

27:                                               ; preds = %6
  %28 = load ptr, ptr %9, align 8
  %29 = load ptr, ptr %8, align 8
  %30 = load ptr, ptr %7, align 8
  %31 = load i32, ptr %11, align 4
  %32 = load i32, ptr %10, align 4
  %33 = call ptr @proto_tree_add_expert(ptr noundef %28, ptr noundef %29, ptr noundef @ei_ansi_637_short_data, ptr noundef %30, i32 noundef %31, i32 noundef %32)
  store i32 1, ptr %21, align 4
  br label %210

34:                                               ; preds = %6
  %35 = load i32, ptr %11, align 4
  store i32 %35, ptr %19, align 4
  %36 = load i32, ptr %11, align 4
  %37 = shl i32 %36, 3
  store i32 %37, ptr %11, align 4
  %38 = load i32, ptr %10, align 4
  %39 = mul i32 %38, 8
  %40 = trunc i32 %39 to i16
  store i16 %40, ptr %18, align 2
  br label %41

41:                                               ; preds = %126, %34
  %42 = load i16, ptr %18, align 2
  %43 = zext i16 %42 to i32
  %44 = icmp sgt i32 %43, 7
  br i1 %44, label %45, label %127

45:                                               ; preds = %41
  %46 = load ptr, ptr %9, align 8
  %47 = load i32, ptr @hf_ansi_637_tele_mult_enc_user_data_encoding, align 4
  %48 = load ptr, ptr %7, align 8
  %49 = load i32, ptr %11, align 4
  %50 = call ptr @proto_tree_add_bits_ret_val(ptr noundef %46, i32 noundef %47, ptr noundef %48, i32 noundef %49, i32 noundef 5, ptr noundef %13, i32 noundef 0)
  %51 = load i64, ptr %13, align 8
  switch i64 %51, label %54 [
    i64 0, label %52
    i64 5, label %52
    i64 6, label %52
    i64 7, label %52
    i64 8, label %52
    i64 16, label %52
    i64 1, label %53
    i64 2, label %53
    i64 3, label %53
    i64 4, label %55
    i64 9, label %56
  ]

52:                                               ; preds = %45, %45, %45, %45, %45, %45
  store i8 8, ptr %14, align 1
  store i32 0, ptr %20, align 4
  br label %57

53:                                               ; preds = %45, %45, %45
  br label %54

54:                                               ; preds = %45, %53
  store i8 7, ptr %14, align 1
  store i32 2, ptr %20, align 4
  br label %57

55:                                               ; preds = %45
  store i8 16, ptr %14, align 1
  store i32 4, ptr %20, align 4
  br label %57

56:                                               ; preds = %45
  store i8 7, ptr %14, align 1
  store i32 1, ptr %20, align 4
  br label %57

57:                                               ; preds = %56, %55, %54, %52
  %58 = load i32, ptr %11, align 4
  %59 = add i32 %58, 5
  store i32 %59, ptr %11, align 4
  %60 = load i16, ptr %18, align 2
  %61 = zext i16 %60 to i32
  %62 = sub i32 %61, 5
  %63 = trunc i32 %62 to i16
  store i16 %63, ptr %18, align 2
  %64 = load ptr, ptr %9, align 8
  %65 = load i32, ptr @hf_ansi_637_tele_mult_enc_user_data_num_fields, align 4
  %66 = load ptr, ptr %7, align 8
  %67 = load i32, ptr %11, align 4
  %68 = call ptr @proto_tree_add_bits_ret_val(ptr noundef %64, i32 noundef %65, ptr noundef %66, i32 noundef %67, i32 noundef 8, ptr noundef %15, i32 noundef 0)
  %69 = load i32, ptr %11, align 4
  %70 = add i32 %69, 8
  store i32 %70, ptr %11, align 4
  %71 = load i16, ptr %18, align 2
  %72 = zext i16 %71 to i32
  %73 = sub i32 %72, 8
  %74 = trunc i32 %73 to i16
  store i16 %74, ptr %18, align 2
  %75 = load i32, ptr %11, align 4
  %76 = and i32 %75, 7
  %77 = icmp ne i32 %76, 0
  br i1 %77, label %78, label %82

78:                                               ; preds = %57
  %79 = load i32, ptr %11, align 4
  %80 = and i32 %79, 7
  %81 = sub i32 8, %80
  br label %83

82:                                               ; preds = %57
  br label %83

83:                                               ; preds = %82, %78
  %84 = phi i32 [ %81, %78 ], [ 0, %82 ]
  %85 = trunc i32 %84 to i8
  store i8 %85, ptr %16, align 1
  store i8 0, ptr %17, align 1
  %86 = load i64, ptr %15, align 8
  %87 = icmp ne i64 %86, 0
  br i1 %87, label %88, label %126

88:                                               ; preds = %83
  %89 = load ptr, ptr %7, align 8
  %90 = load ptr, ptr %8, align 8
  %91 = load ptr, ptr %9, align 8
  %92 = load i32, ptr %11, align 4
  %93 = lshr i32 %92, 3
  %94 = load i64, ptr %13, align 8
  %95 = trunc i64 %94 to i8
  %96 = load i64, ptr %15, align 8
  %97 = trunc i64 %96 to i8
  %98 = load i64, ptr %15, align 8
  %99 = trunc i64 %98 to i8
  %100 = zext i8 %99 to i32
  %101 = load i8, ptr %14, align 1
  %102 = zext i8 %101 to i32
  %103 = mul i32 %100, %102
  %104 = trunc i32 %103 to i16
  %105 = load i8, ptr %16, align 1
  %106 = load i8, ptr %17, align 1
  %107 = load i32, ptr @hf_ansi_637_tele_mult_enc_user_data_text, align 4
  call void @text_decoder(ptr noundef %89, ptr noundef %90, ptr noundef %91, i32 noundef %93, i8 noundef zeroext %95, i8 noundef zeroext %97, i16 noundef zeroext %104, i8 noundef zeroext %105, i8 noundef zeroext %106, i32 noundef %107)
  %108 = load i64, ptr %15, align 8
  %109 = trunc i64 %108 to i8
  %110 = zext i8 %109 to i32
  %111 = load i8, ptr %14, align 1
  %112 = zext i8 %111 to i32
  %113 = mul i32 %110, %112
  %114 = load i32, ptr %11, align 4
  %115 = add i32 %114, %113
  store i32 %115, ptr %11, align 4
  %116 = load i64, ptr %15, align 8
  %117 = trunc i64 %116 to i8
  %118 = zext i8 %117 to i32
  %119 = load i8, ptr %14, align 1
  %120 = zext i8 %119 to i32
  %121 = mul i32 %118, %120
  %122 = load i16, ptr %18, align 2
  %123 = zext i16 %122 to i32
  %124 = sub i32 %123, %121
  %125 = trunc i32 %124 to i16
  store i16 %125, ptr %18, align 2
  br label %126

126:                                              ; preds = %88, %83
  br label %41, !llvm.loop !18

127:                                              ; preds = %41
  %128 = load i16, ptr %18, align 2
  %129 = zext i16 %128 to i32
  %130 = icmp sgt i32 %129, 0
  br i1 %130, label %131, label %209

131:                                              ; preds = %127
  %132 = load i32, ptr %20, align 4
  switch i32 %132, label %192 [
    i32 1, label %133
  ]

133:                                              ; preds = %131
  call void @llvm.lifetime.start.p0(i64 24, ptr %22) #7
  call void @llvm.lifetime.start.p0(i64 1, ptr %23) #7
  store i8 0, ptr %23, align 1
  call void @llvm.lifetime.start.p0(i64 4, ptr %24) #7
  %134 = load i16, ptr %18, align 2
  %135 = zext i16 %134 to i32
  %136 = icmp sgt i32 %135, 3
  br i1 %136, label %137, label %161

137:                                              ; preds = %133
  %138 = load i32, ptr %19, align 4
  %139 = load i32, ptr %10, align 4
  %140 = add i32 %138, %139
  %141 = sub i32 %140, 2
  %142 = mul i32 %141, 8
  %143 = add i32 %142, 5
  store i32 %143, ptr %24, align 4
  %144 = load i8, ptr %23, align 1
  %145 = zext i8 %144 to i64
  %146 = getelementptr [3 x %struct.crumb_spec_t], ptr %22, i64 0, i64 %145
  %147 = getelementptr inbounds nuw %struct.crumb_spec_t, ptr %146, i32 0, i32 0
  store i32 0, ptr %147, align 8
  %148 = load i16, ptr %18, align 2
  %149 = zext i16 %148 to i32
  %150 = sub i32 %149, 3
  %151 = trunc i32 %150 to i8
  %152 = load i8, ptr %23, align 1
  %153 = add i8 %152, 1
  store i8 %153, ptr %23, align 1
  %154 = zext i8 %152 to i64
  %155 = getelementptr [3 x %struct.crumb_spec_t], ptr %22, i64 0, i64 %154
  %156 = getelementptr inbounds nuw %struct.crumb_spec_t, ptr %155, i32 0, i32 1
  store i8 %151, ptr %156, align 4
  %157 = load i8, ptr %23, align 1
  %158 = zext i8 %157 to i64
  %159 = getelementptr [3 x %struct.crumb_spec_t], ptr %22, i64 0, i64 %158
  %160 = getelementptr inbounds nuw %struct.crumb_spec_t, ptr %159, i32 0, i32 0
  store i32 8, ptr %160, align 8
  br label %172

161:                                              ; preds = %133
  %162 = load i32, ptr %19, align 4
  %163 = load i32, ptr %10, align 4
  %164 = add i32 %162, %163
  %165 = sub i32 %164, 1
  %166 = mul i32 %165, 8
  %167 = add i32 %166, 5
  store i32 %167, ptr %24, align 4
  %168 = load i8, ptr %23, align 1
  %169 = zext i8 %168 to i64
  %170 = getelementptr [3 x %struct.crumb_spec_t], ptr %22, i64 0, i64 %169
  %171 = getelementptr inbounds nuw %struct.crumb_spec_t, ptr %170, i32 0, i32 0
  store i32 0, ptr %171, align 8
  br label %172

172:                                              ; preds = %161, %137
  %173 = load i8, ptr %23, align 1
  %174 = add i8 %173, 1
  store i8 %174, ptr %23, align 1
  %175 = zext i8 %173 to i64
  %176 = getelementptr [3 x %struct.crumb_spec_t], ptr %22, i64 0, i64 %175
  %177 = getelementptr inbounds nuw %struct.crumb_spec_t, ptr %176, i32 0, i32 1
  store i8 3, ptr %177, align 4
  %178 = load i8, ptr %23, align 1
  %179 = zext i8 %178 to i64
  %180 = getelementptr [3 x %struct.crumb_spec_t], ptr %22, i64 0, i64 %179
  %181 = getelementptr inbounds nuw %struct.crumb_spec_t, ptr %180, i32 0, i32 0
  store i32 0, ptr %181, align 8
  %182 = load i8, ptr %23, align 1
  %183 = zext i8 %182 to i64
  %184 = getelementptr [3 x %struct.crumb_spec_t], ptr %22, i64 0, i64 %183
  %185 = getelementptr inbounds nuw %struct.crumb_spec_t, ptr %184, i32 0, i32 1
  store i8 0, ptr %185, align 4
  %186 = load ptr, ptr %9, align 8
  %187 = load i32, ptr @hf_ansi_637_reserved_bits_16_generic, align 4
  %188 = load ptr, ptr %7, align 8
  %189 = load i32, ptr %24, align 4
  %190 = getelementptr inbounds [3 x %struct.crumb_spec_t], ptr %22, i64 0, i64 0
  %191 = call ptr @proto_tree_add_split_bits_item_ret_val(ptr noundef %186, i32 noundef %187, ptr noundef %188, i32 noundef %189, ptr noundef %190, ptr noundef null)
  call void @llvm.lifetime.end.p0(i64 4, ptr %24) #7
  call void @llvm.lifetime.end.p0(i64 1, ptr %23) #7
  call void @llvm.lifetime.end.p0(i64 24, ptr %22) #7
  br label %208

192:                                              ; preds = %131
  %193 = load ptr, ptr %9, align 8
  %194 = load i32, ptr @hf_ansi_637_reserved_bits_8_generic, align 4
  %195 = load ptr, ptr %7, align 8
  %196 = load i32, ptr %19, align 4
  %197 = load i32, ptr %10, align 4
  %198 = add i32 %196, %197
  %199 = sub i32 %198, 1
  %200 = mul i32 %199, 8
  %201 = load i16, ptr %18, align 2
  %202 = zext i16 %201 to i32
  %203 = sub i32 8, %202
  %204 = add i32 %200, %203
  %205 = load i16, ptr %18, align 2
  %206 = zext i16 %205 to i32
  %207 = call ptr @proto_tree_add_bits_item(ptr noundef %193, i32 noundef %194, ptr noundef %195, i32 noundef %204, i32 noundef %206, i32 noundef 0)
  br label %208

208:                                              ; preds = %192, %172
  br label %209

209:                                              ; preds = %208, %127
  store i32 0, ptr %21, align 4
  br label %210

210:                                              ; preds = %209, %27
  call void @llvm.lifetime.end.p0(i64 4, ptr %20) #7
  call void @llvm.lifetime.end.p0(i64 4, ptr %19) #7
  call void @llvm.lifetime.end.p0(i64 2, ptr %18) #7
  call void @llvm.lifetime.end.p0(i64 1, ptr %17) #7
  call void @llvm.lifetime.end.p0(i64 1, ptr %16) #7
  call void @llvm.lifetime.end.p0(i64 8, ptr %15) #7
  call void @llvm.lifetime.end.p0(i64 1, ptr %14) #7
  call void @llvm.lifetime.end.p0(i64 8, ptr %13) #7
  %211 = load i32, ptr %21, align 4
  switch i32 %211, label %213 [
    i32 0, label %212
    i32 1, label %212
  ]

212:                                              ; preds = %210, %210
  ret void

213:                                              ; preds = %210
  unreachable
}