; Function Attrs: null_pointer_is_valid sspstrong uwtable
define internal void @tele_param_mult_enc_user_data(ptr noundef %0, ptr noundef %1, ptr noundef %2, i32 noundef %3, i32 noundef %4, ptr readnone captures(none) %5) #0 {
  %7 = alloca i64, align 8
  %8 = alloca i64, align 8
  %9 = alloca [3 x %struct.crumb_spec_t], align 16
  call void @llvm.lifetime.start.p0(i64 8, ptr nonnull %7) #7
  call void @llvm.lifetime.start.p0(i64 8, ptr nonnull %8) #7
  %10 = icmp ult i32 %3, 2
  br i1 %10, label %11, label %13

11:                                               ; preds = %6
  %12 = tail call ptr @proto_tree_add_expert(ptr noundef %2, ptr noundef %1, ptr noundef nonnull @ei_ansi_637_short_data, ptr noundef %0, i32 noundef %4, i32 noundef %3)
  br label %._crit_edge.thread

13:                                               ; preds = %6
  %14 = and i32 %3, 8191
  %.not74 = icmp eq i32 %14, 0
  br i1 %.not74, label %._crit_edge.thread, label %.lr.ph.preheader

.lr.ph.preheader:                                 ; preds = %13
  %15 = shl i32 %3, 3
  %16 = shl i32 %4, 3
  br label %.lr.ph

.lr.ph:                                           ; preds = %.lr.ph.preheader, %51
  %.05871 = phi i32 [ %.159, %51 ], [ %16, %.lr.ph.preheader ]
  %.06070 = phi i32 [ %.161, %51 ], [ %15, %.lr.ph.preheader ]
  %17 = load i32, ptr @hf_ansi_637_tele_mult_enc_user_data_encoding, align 4
  %18 = call ptr @proto_tree_add_bits_ret_val(ptr noundef %2, i32 noundef %17, ptr noundef %0, i32 noundef %.05871, i32 noundef 5, ptr noundef nonnull %7, i32 noundef 0)
  %19 = load i64, ptr %7, align 8
  switch i64 %19, label %20 [
    i64 0, label %23
    i64 5, label %23
    i64 6, label %23
    i64 7, label %23
    i64 8, label %23
    i64 16, label %23
    i64 9, label %22
    i64 4, label %21
  ]

20:                                               ; preds = %.lr.ph
  br label %23

21:                                               ; preds = %.lr.ph
  br label %23

22:                                               ; preds = %.lr.ph
  br label %23

23:                                               ; preds = %.lr.ph, %.lr.ph, %.lr.ph, %.lr.ph, %.lr.ph, %.lr.ph, %22, %21, %20
  %.062 = phi i32 [ 7, %20 ], [ 16, %21 ], [ 7, %22 ], [ 8, %.lr.ph ], [ 8, %.lr.ph ], [ 8, %.lr.ph ], [ 8, %.lr.ph ], [ 8, %.lr.ph ], [ 8, %.lr.ph ]
  %24 = phi i1 [ false, %20 ], [ false, %21 ], [ true, %22 ], [ false, %.lr.ph ], [ false, %.lr.ph ], [ false, %.lr.ph ], [ false, %.lr.ph ], [ false, %.lr.ph ], [ false, %.lr.ph ]
  %25 = add i32 %.05871, 5
  %26 = load i32, ptr @hf_ansi_637_tele_mult_enc_user_data_num_fields, align 4
  %27 = call ptr @proto_tree_add_bits_ret_val(ptr noundef %2, i32 noundef %26, ptr noundef %0, i32 noundef %25, i32 noundef 8, ptr noundef nonnull %8, i32 noundef 0)
  %28 = add i32 %.05871, 13
  %29 = add i32 %.06070, 65523
  %30 = load i64, ptr %8, align 8
  %.not69 = icmp eq i64 %30, 0
  br i1 %.not69, label %51, label %31

31:                                               ; preds = %23
  %32 = and i32 %28, 7
  %.not68 = icmp eq i32 %32, 0
  %33 = trunc nuw nsw i32 %32 to i8
  %34 = sub nuw nsw i8 8, %33
  %35 = select i1 %.not68, i8 0, i8 %34
  %36 = lshr i32 %28, 3
  %37 = load i64, ptr %7, align 8
  %38 = trunc i64 %37 to i8
  %39 = trunc i64 %30 to i8
  %40 = trunc i64 %30 to i32
  %41 = and i32 %40, 255
  %42 = mul nuw nsw i32 %41, %.062
  %43 = trunc nuw nsw i32 %42 to i16
  %44 = load i32, ptr @hf_ansi_637_tele_mult_enc_user_data_text, align 4
  call fastcc void @text_decoder(ptr noundef %0, ptr noundef %1, ptr noundef %2, i32 noundef %36, i8 noundef zeroext %38, i8 noundef zeroext %39, i16 noundef zeroext %43, i8 noundef zeroext %35, i8 noundef zeroext 0, i32 noundef %44)
  %45 = load i64, ptr %8, align 8
  %46 = trunc i64 %45 to i32
  %47 = and i32 %46, 255
  %48 = mul nuw nsw i32 %47, %.062
  %49 = add i32 %48, %28
  %50 = sub i32 %29, %48
  br label %51

51:                                               ; preds = %31, %23
  %.161 = phi i32 [ %50, %31 ], [ %29, %23 ]
  %.159 = phi i32 [ %49, %31 ], [ %28, %23 ]
  %52 = and i32 %.161, 65535
  %53 = icmp samesign ugt i32 %52, 7
  br i1 %53, label %.lr.ph, label %._crit_edge, !llvm.loop !18

._crit_edge:                                      ; preds = %51
  %.not = icmp eq i32 %52, 0
  br i1 %.not, label %._crit_edge.thread, label %54

54:                                               ; preds = %._crit_edge
  br i1 %24, label %55, label %76

55:                                               ; preds = %54
  call void @llvm.lifetime.start.p0(i64 24, ptr nonnull %9) #7
  %56 = icmp samesign ugt i32 %52, 3
  %57 = add i32 %4, %3
  %58 = shl i32 %57, 3
  br i1 %56, label %59, label %65

59:                                               ; preds = %55
  %60 = add i32 %58, -11
  %61 = trunc i32 %.161 to i8
  %62 = add i8 %61, -3
  %63 = getelementptr inbounds nuw i8, ptr %9, i64 4
  store i8 %62, ptr %63, align 4
  %64 = getelementptr inbounds nuw i8, ptr %9, i64 8
  store i32 8, ptr %64, align 8
  br label %67

65:                                               ; preds = %55
  %66 = add i32 %58, -3
  br label %67

67:                                               ; preds = %65, %59
  %.056 = phi i8 [ 1, %59 ], [ 0, %65 ]
  %.0 = phi i32 [ %60, %59 ], [ %66, %65 ]
  store i32 0, ptr %9, align 16
  %68 = add nuw nsw i8 %.056, 1
  %69 = zext nneg i8 %.056 to i64
  %70 = getelementptr [3 x %struct.crumb_spec_t], ptr %9, i64 0, i64 %69, i32 1
  store i8 3, ptr %70, align 4
  %71 = zext nneg i8 %68 to i64
  %72 = getelementptr [3 x %struct.crumb_spec_t], ptr %9, i64 0, i64 %71
  store i32 0, ptr %72, align 8
  %73 = getelementptr inbounds nuw i8, ptr %72, i64 4
  store i8 0, ptr %73, align 4
  %74 = load i32, ptr @hf_ansi_637_reserved_bits_16_generic, align 4
  %75 = call ptr @proto_tree_add_split_bits_item_ret_val(ptr noundef %2, i32 noundef %74, ptr noundef %0, i32 noundef %.0, ptr noundef nonnull %9, ptr noundef null)
  call void @llvm.lifetime.end.p0(i64 24, ptr nonnull %9) #7
  br label %._crit_edge.thread

76:                                               ; preds = %54
  %77 = load i32, ptr @hf_ansi_637_reserved_bits_8_generic, align 4
  %78 = add i32 %4, %3
  %79 = shl i32 %78, 3
  %80 = sub i32 %79, %52
  %81 = call ptr @proto_tree_add_bits_item(ptr noundef %2, i32 noundef %77, ptr noundef %0, i32 noundef %80, i32 noundef %52, i32 noundef 0)
  br label %._crit_edge.thread

._crit_edge.thread:                               ; preds = %13, %._crit_edge, %76, %67, %11
  call void @llvm.lifetime.end.p0(i64 8, ptr nonnull %8) #7
  call void @llvm.lifetime.end.p0(i64 8, ptr nonnull %7) #7
  ret void
}